; Function Attrs: nounwind uwtable
define dso_local void @register_label_provider(ptr noundef %0, ptr noundef %1) local_unnamed_addr #0 {
  %3 = load ptr, ptr @TopMemoryContext, align 8
  %4 = load ptr, ptr @CurrentMemoryContext, align 8
  store ptr %3, ptr @CurrentMemoryContext, align 8
  %5 = tail call ptr @palloc(i64 noundef 16) #8
  %6 = tail call ptr @pstrdup(ptr noundef %0) #8
  store ptr %6, ptr %5, align 8
  %7 = getelementptr inbounds nuw i8, ptr %5, i64 8
  store ptr %1, ptr %7, align 8
  %8 = load ptr, ptr @label_provider_list, align 8
  %9 = tail call ptr @lappend(ptr noundef %8, ptr noundef nonnull %5) #8
  store ptr %9, ptr @label_provider_list, align 8
  store ptr %4, ptr @CurrentMemoryContext, align 8
  ret void
}